; ModuleID = 'source-C-CXX/35/1639.c'
source_filename = "source-C-CXX/35/1639.c"
target datalayout = "e-m:e-p270:32:32-p271:32:32-p272:64:64-i64:64-f80:128-n8:16:32:64-S128"
target triple = "x86_64-pc-linux-gnu"

@.str = private unnamed_addr constant [5 x i8] c"%s%s\00", align 1
@.str.1 = private unnamed_addr constant [3 x i8] c"NO\00", align 1
@.str.2 = private unnamed_addr constant [4 x i8] c"YES\00", align 1

; Function Attrs: nofree nounwind sspstrong uwtable
define dso_local i32 @main() local_unnamed_addr #0 {
  %1 = alloca [300 x i32], align 16
  %2 = alloca [300 x i32], align 16
  %3 = alloca [300 x i8], align 16
  %4 = alloca [300 x i8], align 16
  %5 = bitcast [300 x i32]* %1 to i8*
  call void @llvm.lifetime.start.p0i8(i64 1200, i8* nonnull %5) #6
  call void @llvm.memset.p0i8.i64(i8* noundef nonnull align 16 dereferenceable(1200) %5, i8 0, i64 1200, i1 false)
  %6 = bitcast [300 x i32]* %2 to i8*
  call void @llvm.lifetime.start.p0i8(i64 1200, i8* nonnull %6) #6
  call void @llvm.memset.p0i8.i64(i8* noundef nonnull align 16 dereferenceable(1200) %6, i8 0, i64 1200, i1 false)
  %7 = getelementptr inbounds [300 x i8], [300 x i8]* %3, i64 0, i64 0
  call void @llvm.lifetime.start.p0i8(i64 300, i8* nonnull %7) #6
  %8 = getelementptr inbounds [300 x i8], [300 x i8]* %4, i64 0, i64 0
  call void @llvm.lifetime.start.p0i8(i64 300, i8* nonnull %8) #6
  %9 = call i32 (i8*, ...) @__isoc99_scanf(i8* getelementptr inbounds ([5 x i8], [5 x i8]* @.str, i64 0, i64 0), i8* nonnull %7, i8* nonnull %8)
  %10 = call i64 @strlen(i8* noundef nonnull %7) #7
  %11 = trunc i64 %10 to i32
  %12 = call i64 @strlen(i8* noundef nonnull %8) #7
  %13 = trunc i64 %12 to i32
  %14 = icmp eq i32 %13, %11
  br i1 %14, label %15, label %93

15:                                               ; preds = %0
  %16 = icmp sgt i32 %11, 0
  br i1 %16, label %17, label %93

17:                                               ; preds = %15
  %18 = and i64 %10, 4294967295
  br label %19

19:                                               ; preds = %17, %43
  %20 = phi i64 [ 0, %17 ], [ %44, %43 ]
  %21 = getelementptr inbounds [300 x i8], [300 x i8]* %3, i64 0, i64 %20
  %22 = load i8, i8* %21, align 1, !tbaa !5
  br label %23

23:                                               ; preds = %19, %32
  %24 = phi i64 [ 0, %19 ], [ %33, %32 ]
  %25 = getelementptr inbounds [300 x i8], [300 x i8]* %4, i64 0, i64 %24
  %26 = load i8, i8* %25, align 1, !tbaa !5
  %27 = icmp eq i8 %22, %26
  br i1 %27, label %28, label %32

28:                                               ; preds = %23
  %29 = getelementptr inbounds [300 x i32], [300 x i32]* %2, i64 0, i64 %24
  %30 = load i32, i32* %29, align 4, !tbaa !8
  %31 = icmp eq i32 %30, 0
  br i1 %31, label %35, label %32

32:                                               ; preds = %28, %23
  %33 = add nuw nsw i64 %24, 1
  %34 = icmp eq i64 %33, %18
  br i1 %34, label %39, label %23, !llvm.loop !10

35:                                               ; preds = %28
  %36 = and i64 %24, 4294967295
  %37 = getelementptr inbounds [300 x i32], [300 x i32]* %2, i64 0, i64 %36
  store i32 1, i32* %37, align 4, !tbaa !8
  %38 = getelementptr inbounds [300 x i32], [300 x i32]* %1, i64 0, i64 %20
  store i32 1, i32* %38, align 4, !tbaa !8
  br label %43

39:                                               ; preds = %32
  %40 = getelementptr inbounds [300 x i32], [300 x i32]* %1, i64 0, i64 %20
  %41 = load i32, i32* %40, align 4, !tbaa !8
  %42 = icmp eq i32 %41, 0
  br i1 %42, label %46, label %43

43:                                               ; preds = %35, %39
  %44 = add nuw nsw i64 %20, 1
  %45 = icmp eq i64 %44, %18
  br i1 %45, label %48, label %19, !llvm.loop !12

46:                                               ; preds = %39
  %47 = call i32 (i8*, ...) @printf(i8* nonnull dereferenceable(1) getelementptr inbounds ([3 x i8], [3 x i8]* @.str.1, i64 0, i64 0))
  br label %48

48:                                               ; preds = %43, %46
  br i1 %16, label %49, label %93

49:                                               ; preds = %48
  %50 = and i64 %10, 4294967295
  %51 = icmp ult i64 %18, 8
  br i1 %51, label %77, label %52

52:                                               ; preds = %49
  %53 = and i64 %10, 7
  %54 = sub nsw i64 %18, %53
  br label %55

55:                                               ; preds = %55, %52
  %56 = phi i64 [ 0, %52 ], [ %71, %55 ]
  %57 = phi <4 x i32> [ zeroinitializer, %52 ], [ %69, %55 ]
  %58 = phi <4 x i32> [ zeroinitializer, %52 ], [ %70, %55 ]
  %59 = getelementptr inbounds [300 x i32], [300 x i32]* %1, i64 0, i64 %56
  %60 = bitcast i32* %59 to <4 x i32>*
  %61 = load <4 x i32>, <4 x i32>* %60, align 16, !tbaa !8
  %62 = getelementptr inbounds i32, i32* %59, i64 4
  %63 = bitcast i32* %62 to <4 x i32>*
  %64 = load <4 x i32>, <4 x i32>* %63, align 16, !tbaa !8
  %65 = icmp eq <4 x i32> %61, zeroinitializer
  %66 = icmp eq <4 x i32> %64, zeroinitializer
  %67 = zext <4 x i1> %65 to <4 x i32>
  %68 = zext <4 x i1> %66 to <4 x i32>
  %69 = add <4 x i32> %57, %67
  %70 = add <4 x i32> %58, %68
  %71 = add nuw i64 %56, 8
  %72 = icmp eq i64 %71, %54
  br i1 %72, label %73, label %55, !llvm.loop !13

73:                                               ; preds = %55
  %74 = add <4 x i32> %70, %69
  %75 = call i32 @llvm.vector.reduce.add.v4i32(<4 x i32> %74)
  %76 = icmp eq i64 %53, 0
  br i1 %76, label %90, label %77

77:                                               ; preds = %49, %73
  %78 = phi i64 [ 0, %49 ], [ %54, %73 ]
  %79 = phi i32 [ 0, %49 ], [ %75, %73 ]
  br label %80

80:                                               ; preds = %77, %80
  %81 = phi i64 [ %88, %80 ], [ %78, %77 ]
  %82 = phi i32 [ %87, %80 ], [ %79, %77 ]
  %83 = getelementptr inbounds [300 x i32], [300 x i32]* %1, i64 0, i64 %81
  %84 = load i32, i32* %83, align 4, !tbaa !8
  %85 = icmp eq i32 %84, 0
  %86 = zext i1 %85 to i32
  %87 = add nuw nsw i32 %82, %86
  %88 = add nuw nsw i64 %81, 1
  %89 = icmp eq i64 %88, %50
  br i1 %89, label %90, label %80, !llvm.loop !15

90:                                               ; preds = %80, %73
  %91 = phi i32 [ %75, %73 ], [ %87, %80 ]
  %92 = icmp eq i32 %91, 0
  br i1 %92, label %93, label %96

93:                                               ; preds = %90, %48, %15, %0
  %94 = phi i8* [ getelementptr inbounds ([3 x i8], [3 x i8]* @.str.1, i64 0, i64 0), %0 ], [ getelementptr inbounds ([4 x i8], [4 x i8]* @.str.2, i64 0, i64 0), %15 ], [ getelementptr inbounds ([4 x i8], [4 x i8]* @.str.2, i64 0, i64 0), %48 ], [ getelementptr inbounds ([4 x i8], [4 x i8]* @.str.2, i64 0, i64 0), %90 ]
  %95 = call i32 (i8*, ...) @printf(i8* nonnull dereferenceable(1) %94)
  br label %96

96:                                               ; preds = %93, %90
  call void @llvm.lifetime.end.p0i8(i64 300, i8* nonnull %8) #6
  call void @llvm.lifetime.end.p0i8(i64 300, i8* nonnull %7) #6
  call void @llvm.lifetime.end.p0i8(i64 1200, i8* nonnull %6) #6
  call void @llvm.lifetime.end.p0i8(i64 1200, i8* nonnull %5) #6
  ret i32 0
}

; Function Attrs: argmemonly mustprogress nofree nosync nounwind willreturn
declare void @llvm.lifetime.start.p0i8(i64 immarg, i8* nocapture) #1

; Function Attrs: argmemonly mustprogress nofree nounwind willreturn writeonly
declare void @llvm.memset.p0i8.i64(i8* nocapture writeonly, i8, i64, i1 immarg) #2

; Function Attrs: nofree nounwind
declare noundef i32 @__isoc99_scanf(i8* nocapture noundef readonly, ...) local_unnamed_addr #3

; Function Attrs: argmemonly mustprogress nofree nounwind readonly willreturn
declare i64 @strlen(i8* nocapture) local_unnamed_addr #4

; Function Attrs: nofree nounwind
declare noundef i32 @printf(i8* nocapture noundef readonly, ...) local_unnamed_addr #3

; Function Attrs: argmemonly mustprogress nofree nosync nounwind willreturn
declare void @llvm.lifetime.end.p0i8(i64 immarg, i8* nocapture) #1

; Function Attrs: nofree nosync nounwind readnone willreturn
declare i32 @llvm.vector.reduce.add.v4i32(<4 x i32>) #5


!llvm.module.flags = !{!0, !1, !2, !3}
!llvm.ident = !{!4}

!0 = !{i32 1, !"wchar_size", i32 4}
!1 = !{i32 7, !"PIC Level", i32 2}
!2 = !{i32 7, !"PIE Level", i32 2}
!3 = !{i32 7, !"uwtable", i32 1}
!4 = !{!"clang version 13.0.0"}
!5 = !{!6, !6, i64 0}
!6 = !{!"omnipotent char", !7, i64 0}
!7 = !{!"Simple C/C++ TBAA"}
!8 = !{!9, !9, i64 0}
!9 = !{!"int", !6, i64 0}
!10 = distinct !{!10, !11}
!11 = !{!"llvm.loop.mustprogress"}
!12 = distinct !{!12, !11}
!13 = distinct !{!13, !11, !14}
!14 = !{!"llvm.loop.isvectorized", i32 1}
!15 = distinct !{!15, !11, !16, !14}
!16 = !{!"llvm.loop.unroll.runtime.disable"}
